target datalayout = "e-m:e-p270:32:32-p271:32:32-p272:64:64-i64:64-i128:128-f80:128-n8:16:32:64-S128"
target triple = "x86_64-pc-linux-gnu"

%struct.tls_group_st = type { i32, i32, i32, i32, i32, i32, i32 }
%struct.ossl_param_st = type { ptr, i32, ptr, i64, i64 }

@xor_group = internal global %struct.tls_group_st { i32 0, i32 128, i32 772, i32 0, i32 -1, i32 -1, i32 0 }, align 4
@.str.2 = private unnamed_addr constant [31 x i8] c"../openssl/test/tls-provider.c\00", align 1
@dummy_group_names = internal global [50 x ptr] zeroinitializer, align 16
@.str.75 = private unnamed_addr constant [6 x i8] c"dummy\00", align 1
@.str.76 = private unnamed_addr constant [10 x i8] c"TLS-GROUP\00", align 1
@.str.77 = private unnamed_addr constant [95 x i8] c"assertion failed: xor_group.group_id >= 65024 && xor_group.group_id < 65279 - NUM_DUMMY_GROUPS\00", align 1
@.str.78 = private unnamed_addr constant [5 x i8] c"%s%d\00", align 1
@.str.79 = private unnamed_addr constant [11 x i8] c"TLS-SIGALG\00", align 1

; Function Attrs: nounwind uwtable
define internal i32 @tls_prov_get_capabilities(ptr noundef %0, ptr noundef %1, ptr noundef %2, ptr noundef %3) #0 {
  %5 = alloca i32, align 4
  %6 = alloca ptr, align 8
  %7 = alloca ptr, align 8
  %8 = alloca ptr, align 8
  %9 = alloca ptr, align 8
  %10 = alloca i32, align 4
  %11 = alloca i32, align 4
  %12 = alloca ptr, align 8
  %13 = alloca i64, align 8
  %14 = alloca [11 x %struct.ossl_param_st], align 16
  %15 = alloca i32, align 4
  %16 = alloca i32, align 4
  store ptr %0, ptr %6, align 8, !tbaa !13
  store ptr %1, ptr %7, align 8, !tbaa !30
  store ptr %2, ptr %8, align 8, !tbaa !13
  store ptr %3, ptr %9, align 8, !tbaa !13
  call void @llvm.lifetime.start.p0(i64 4, ptr %10) #8
  store i32 0, ptr %10, align 4, !tbaa !27
  call void @llvm.lifetime.start.p0(i64 4, ptr %11) #8
  call void @llvm.lifetime.start.p0(i64 8, ptr %12) #8
  store ptr @.str.75, ptr %12, align 8, !tbaa !30
  call void @llvm.lifetime.start.p0(i64 8, ptr %13) #8
  %17 = load ptr, ptr %12, align 8, !tbaa !30
  %18 = call i64 @strlen(ptr noundef %17) #9
  %19 = add i64 %18, 3
  store i64 %19, ptr %13, align 8, !tbaa !35
  %20 = load ptr, ptr %7, align 8, !tbaa !30
  %21 = call i32 @strcmp(ptr noundef %20, ptr noundef @.str.76) #9
  %22 = icmp eq i32 %21, 0
  br i1 %22, label %23, label %104

23:                                               ; preds = %4
  %24 = load i32, ptr @xor_group, align 4, !tbaa !16
  %25 = icmp uge i32 %24, 65024
  br i1 %25, label %26, label %30

26:                                               ; preds = %23
  %27 = load i32, ptr @xor_group, align 4, !tbaa !16
  %28 = icmp ult i32 %27, 65229
  br i1 %28, label %29, label %30

29:                                               ; preds = %26
  br label %32

30:                                               ; preds = %26, %23
  call void @OPENSSL_die(ptr noundef @.str.77, ptr noundef @.str.2, i32 noundef 389) #10
  unreachable

31:                                               ; No predecessors!
  br label %32

32:                                               ; preds = %31, %29
  %33 = load ptr, ptr %8, align 8, !tbaa !13
  %34 = load ptr, ptr %9, align 8, !tbaa !13
  %35 = call i32 %33(ptr noundef @xor_group_params, ptr noundef %34)
  store i32 %35, ptr %10, align 4, !tbaa !27
  %36 = load ptr, ptr %8, align 8, !tbaa !13
  %37 = load ptr, ptr %9, align 8, !tbaa !13
  %38 = call i32 %36(ptr noundef @xor_kemgroup_params, ptr noundef %37)
  %39 = load i32, ptr %10, align 4, !tbaa !27
  %40 = and i32 %39, %38
  store i32 %40, ptr %10, align 4, !tbaa !27
  store i32 0, ptr %11, align 4, !tbaa !27
  br label %41

41:                                               ; preds = %100, %32
  %42 = load i32, ptr %11, align 4, !tbaa !27
  %43 = icmp slt i32 %42, 50
  br i1 %43, label %44, label %103

44:                                               ; preds = %41
  call void @llvm.lifetime.start.p0(i64 440, ptr %14) #8
  call void @llvm.lifetime.start.p0(i64 4, ptr %15) #8
  %45 = getelementptr inbounds [11 x %struct.ossl_param_st], ptr %14, i64 0, i64 0
  call void @llvm.memcpy.p0.p0.i64(ptr align 16 %45, ptr align 16 @xor_group_params, i64 440, i1 false)
  %46 = load i32, ptr %11, align 4, !tbaa !27
  %47 = sext i32 %46 to i64
  %48 = getelementptr inbounds [50 x ptr], ptr @dummy_group_names, i64 0, i64 %47
  %49 = load ptr, ptr %48, align 8, !tbaa !30
  %50 = icmp eq ptr %49, null
  br i1 %50, label %51, label %72

51:                                               ; preds = %44
  %52 = load i64, ptr %13, align 8, !tbaa !35
  %53 = call noalias ptr @CRYPTO_zalloc(i64 noundef %52, ptr noundef @.str.2, i32 noundef 407)
  %54 = load i32, ptr %11, align 4, !tbaa !27
  %55 = sext i32 %54 to i64
  %56 = getelementptr inbounds [50 x ptr], ptr @dummy_group_names, i64 0, i64 %55
  store ptr %53, ptr %56, align 8, !tbaa !30
  %57 = load i32, ptr %11, align 4, !tbaa !27
  %58 = sext i32 %57 to i64
  %59 = getelementptr inbounds [50 x ptr], ptr @dummy_group_names, i64 0, i64 %58
  %60 = load ptr, ptr %59, align 8, !tbaa !30
  %61 = icmp eq ptr %60, null
  br i1 %61, label %62, label %63

62:                                               ; preds = %51
  store i32 0, ptr %5, align 4
  store i32 1, ptr %16, align 4
  br label %97

63:                                               ; preds = %51
  %64 = load i32, ptr %11, align 4, !tbaa !27
  %65 = sext i32 %64 to i64
  %66 = getelementptr inbounds [50 x ptr], ptr @dummy_group_names, i64 0, i64 %65
  %67 = load ptr, ptr %66, align 8, !tbaa !30
  %68 = load i64, ptr %13, align 8, !tbaa !35
  %69 = load ptr, ptr %12, align 8, !tbaa !30
  %70 = load i32, ptr %11, align 4, !tbaa !27
  %71 = call i32 (ptr, i64, ptr, ...) @BIO_snprintf(ptr noundef %67, i64 noundef %68, ptr noundef @.str.78, ptr noundef %69, i32 noundef %70)
  br label %72

72:                                               ; preds = %63, %44
  %73 = load i32, ptr %11, align 4, !tbaa !27
  %74 = sext i32 %73 to i64
  %75 = getelementptr inbounds [50 x ptr], ptr @dummy_group_names, i64 0, i64 %74
  %76 = load ptr, ptr %75, align 8, !tbaa !30
  %77 = getelementptr inbounds [11 x %struct.ossl_param_st], ptr %14, i64 0, i64 0
  %78 = getelementptr inbounds nuw %struct.ossl_param_st, ptr %77, i32 0, i32 2
  store ptr %76, ptr %78, align 16, !tbaa !37
  %79 = load i32, ptr %11, align 4, !tbaa !27
  %80 = sext i32 %79 to i64
  %81 = getelementptr inbounds [50 x ptr], ptr @dummy_group_names, i64 0, i64 %80
  %82 = load ptr, ptr %81, align 8, !tbaa !30
  %83 = call i64 @strlen(ptr noundef %82) #9
  %84 = add i64 %83, 1
  %85 = getelementptr inbounds [11 x %struct.ossl_param_st], ptr %14, i64 0, i64 0
  %86 = getelementptr inbounds nuw %struct.ossl_param_st, ptr %85, i32 0, i32 3
  store i64 %84, ptr %86, align 8, !tbaa !39
  %87 = load i32, ptr %11, align 4, !tbaa !27
  %88 = add nsw i32 65229, %87
  store i32 %88, ptr %15, align 4, !tbaa !27
  %89 = getelementptr inbounds [11 x %struct.ossl_param_st], ptr %14, i64 0, i64 3
  %90 = getelementptr inbounds nuw %struct.ossl_param_st, ptr %89, i32 0, i32 2
  store ptr %15, ptr %90, align 8, !tbaa !37
  %91 = load ptr, ptr %8, align 8, !tbaa !13
  %92 = getelementptr inbounds [11 x %struct.ossl_param_st], ptr %14, i64 0, i64 0
  %93 = load ptr, ptr %9, align 8, !tbaa !13
  %94 = call i32 %91(ptr noundef %92, ptr noundef %93)
  %95 = load i32, ptr %10, align 4, !tbaa !27
  %96 = and i32 %95, %94
  store i32 %96, ptr %10, align 4, !tbaa !27
  store i32 0, ptr %16, align 4
  br label %97

97:                                               ; preds = %72, %62
  call void @llvm.lifetime.end.p0(i64 4, ptr %15) #8
  call void @llvm.lifetime.end.p0(i64 440, ptr %14) #8
  %98 = load i32, ptr %16, align 4
  switch i32 %98, label %124 [
    i32 0, label %99
  ]

99:                                               ; preds = %97
  br label %100

100:                                              ; preds = %99
  %101 = load i32, ptr %11, align 4, !tbaa !27
  %102 = add nsw i32 %101, 1
  store i32 %102, ptr %11, align 4, !tbaa !27
  br label %41, !llvm.loop !40

103:                                              ; preds = %41
  br label %104

104:                                              ; preds = %103, %4
  %105 = load ptr, ptr %7, align 8, !tbaa !30
  %106 = call i32 @strcmp(ptr noundef %105, ptr noundef @.str.79) #9
  %107 = icmp eq i32 %106, 0
  br i1 %107, label %108, label %122

108:                                              ; preds = %104
  %109 = load ptr, ptr %8, align 8, !tbaa !13
  %110 = load ptr, ptr %9, align 8, !tbaa !13
  %111 = call i32 %109(ptr noundef @xor_sig_nohash_params, ptr noundef %110)
  store i32 %111, ptr %10, align 4, !tbaa !27
  %112 = load ptr, ptr %8, align 8, !tbaa !13
  %113 = load ptr, ptr %9, align 8, !tbaa !13
  %114 = call i32 %112(ptr noundef @xor_sig_hash_params, ptr noundef %113)
  %115 = load i32, ptr %10, align 4, !tbaa !27
  %116 = and i32 %115, %114
  store i32 %116, ptr %10, align 4, !tbaa !27
  %117 = load ptr, ptr %8, align 8, !tbaa !13
  %118 = load ptr, ptr %9, align 8, !tbaa !13
  %119 = call i32 %117(ptr noundef @xor_sig_12_params, ptr noundef %118)
  %120 = load i32, ptr %10, align 4, !tbaa !27
  %121 = and i32 %120, %119
  store i32 %121, ptr %10, align 4, !tbaa !27
  br label %122

122:                                              ; preds = %108, %104
  %123 = load i32, ptr %10, align 4, !tbaa !27
  store i32 %123, ptr %5, align 4
  store i32 1, ptr %16, align 4
  br label %124

124:                                              ; preds = %122, %97
  call void @llvm.lifetime.end.p0(i64 8, ptr %13) #8
  call void @llvm.lifetime.end.p0(i64 8, ptr %12) #8
  call void @llvm.lifetime.end.p0(i64 4, ptr %11) #8
  call void @llvm.lifetime.end.p0(i64 4, ptr %10) #8
  %125 = load i32, ptr %5, align 4
  ret i32 %125
}