; Function Attrs: nounwind uwtable
define internal i32 @tls_prov_get_capabilities(ptr readnone captures(none) %0, ptr noundef readonly captures(none) %1, ptr noundef readonly captures(none) %2, ptr noundef %3) #0 {
  %5 = alloca [11 x %struct.ossl_param_st], align 16
  %6 = alloca i32, align 4
  %7 = tail call i32 @strcmp(ptr noundef nonnull dereferenceable(1) %1, ptr noundef nonnull dereferenceable(10) @.str.76) #17
  %8 = icmp eq i32 %7, 0
  br i1 %8, label %9, label %.loopexit

9:                                                ; preds = %4
  %10 = load i32, ptr @xor_group, align 4, !tbaa !15
  %11 = add i32 %10, -65024
  %or.cond = icmp ult i32 %11, 205
  br i1 %or.cond, label %13, label %12

12:                                               ; preds = %9
  tail call void @OPENSSL_die(ptr noundef nonnull @.str.77, ptr noundef nonnull @.str.2, i32 noundef 389) #18
  unreachable

13:                                               ; preds = %9
  %14 = tail call i32 %2(ptr noundef nonnull @xor_group_params, ptr noundef %3) #16
  %15 = tail call i32 %2(ptr noundef nonnull @xor_kemgroup_params, ptr noundef %3) #16
  %16 = and i32 %15, %14
  %17 = getelementptr inbounds nuw i8, ptr %5, i64 16
  %18 = getelementptr inbounds nuw i8, ptr %5, i64 24
  %19 = getelementptr inbounds nuw i8, ptr %5, i64 136
  br label %20

20:                                               ; preds = %13, %31
  %indvars.iv = phi i64 [ 0, %13 ], [ %indvars.iv.next, %31 ]
  %.13746 = phi i32 [ %16, %13 ], [ %38, %31 ]
  call void @llvm.lifetime.start.p0(i64 440, ptr nonnull %5) #16
  call void @llvm.lifetime.start.p0(i64 4, ptr nonnull %6) #16
  call void @llvm.memcpy.p0.p0.i64(ptr noundef nonnull align 16 dereferenceable(440) %5, ptr noundef nonnull align 16 dereferenceable(440) @xor_group_params, i64 440, i1 false)
  %21 = getelementptr inbounds nuw [50 x ptr], ptr @dummy_group_names, i64 0, i64 %indvars.iv
  %22 = load ptr, ptr %21, align 8, !tbaa !25
  %23 = icmp eq ptr %22, null
  br i1 %23, label %24, label %31

24:                                               ; preds = %20
  %25 = call noalias ptr @CRYPTO_zalloc(i64 noundef 8, ptr noundef nonnull @.str.2, i32 noundef 407) #16
  store ptr %25, ptr %21, align 8, !tbaa !25
  %26 = icmp eq ptr %25, null
  br i1 %26, label %30, label %27

27:                                               ; preds = %24
  %28 = trunc nuw nsw i64 %indvars.iv to i32
  %29 = call i32 (ptr, i64, ptr, ...) @BIO_snprintf(ptr noundef nonnull %25, i64 noundef 8, ptr noundef nonnull @.str.78, ptr noundef nonnull @.str.75, i32 noundef %28) #16
  %.pre = load ptr, ptr %21, align 8, !tbaa !25
  br label %31

30:                                               ; preds = %24
  call void @llvm.lifetime.end.p0(i64 4, ptr nonnull %6) #16
  call void @llvm.lifetime.end.p0(i64 440, ptr nonnull %5) #16
  br label %47

31:                                               ; preds = %20, %27
  %32 = phi ptr [ %22, %20 ], [ %.pre, %27 ]
  store ptr %32, ptr %17, align 16, !tbaa !28
  %33 = call i64 @strlen(ptr noundef nonnull dereferenceable(1) %32) #17
  %34 = add i64 %33, 1
  store i64 %34, ptr %18, align 8, !tbaa !31
  %35 = trunc i64 %indvars.iv to i32
  %36 = add i32 %35, 65229
  store i32 %36, ptr %6, align 4, !tbaa !11
  store ptr %6, ptr %19, align 8, !tbaa !28
  %37 = call i32 %2(ptr noundef nonnull %5, ptr noundef %3) #16
  %38 = and i32 %37, %.13746
  call void @llvm.lifetime.end.p0(i64 4, ptr nonnull %6) #16
  call void @llvm.lifetime.end.p0(i64 440, ptr nonnull %5) #16
  %indvars.iv.next = add nuw nsw i64 %indvars.iv, 1
  %exitcond.not = icmp eq i64 %indvars.iv.next, 50
  br i1 %exitcond.not, label %.loopexit, label %20, !llvm.loop !32

.loopexit:                                        ; preds = %31, %4
  %.036 = phi i32 [ 0, %4 ], [ %38, %31 ]
  %39 = call i32 @strcmp(ptr noundef nonnull dereferenceable(1) %1, ptr noundef nonnull dereferenceable(11) @.str.79) #17
  %40 = icmp eq i32 %39, 0
  br i1 %40, label %41, label %47

41:                                               ; preds = %.loopexit
  %42 = call i32 %2(ptr noundef nonnull @xor_sig_nohash_params, ptr noundef %3) #16
  %43 = call i32 %2(ptr noundef nonnull @xor_sig_hash_params, ptr noundef %3) #16
  %44 = and i32 %43, %42
  %45 = call i32 %2(ptr noundef nonnull @xor_sig_12_params, ptr noundef %3) #16
  %46 = and i32 %44, %45
  br label %47

47:                                               ; preds = %30, %.loopexit, %41
  %.2 = phi i32 [ 0, %30 ], [ %46, %41 ], [ %.036, %.loopexit ]
  ret i32 %.2
}